target datalayout = "e-m:e-p270:32:32-p271:32:32-p272:64:64-i64:64-i128:128-f80:128-n8:16:32:64-S128"
target triple = "x86_64-pc-linux-gnu"

%struct.rb_data_type_struct = type { ptr, %struct.anon.12, ptr, ptr, i64 }
%struct.anon.12 = type { ptr, ptr, ptr, ptr, [1 x ptr] }
%struct.rb_ractor_struct = type { %struct.rb_ractor_pub, %struct.rb_ractor_sync, i64, %union.pthread_cond_t, %struct.anon.17, i64, i64, i64, i32, %struct.ccan_list_node, ptr, ptr, i64, i64, i64, i64, i64, i64, ptr }
%struct.rb_ractor_pub = type { i64, i32, %struct.rb_hook_list_struct }
%struct.rb_hook_list_struct = type { ptr, i32, i32, i8, i8 }
%struct.rb_ractor_sync = type { %union.pthread_mutex_t, i8, i8, %struct.rb_ractor_queue, %struct.rb_ractor_queue, %struct.rb_ractor_basket, %struct.ractor_wait }
%union.pthread_mutex_t = type { %struct.__pthread_mutex_s }
%struct.__pthread_mutex_s = type { i32, i32, i32, i32, i32, i16, i16, %struct.__pthread_internal_list }
%struct.__pthread_internal_list = type { ptr, ptr }
%struct.rb_ractor_queue = type { ptr, i32, i32, i32, i32, i32 }
%struct.rb_ractor_basket = type { %union.anon.13, i64, %union.anon.14 }
%union.anon.13 = type { i32 }
%union.anon.14 = type { %struct.anon.15 }
%struct.anon.15 = type { i64, i8 }
%struct.ractor_wait = type { i32, i32, ptr }
%union.pthread_cond_t = type { %struct.__pthread_cond_s }
%struct.__pthread_cond_s = type { %union.__atomic_wide_counter, %union.__atomic_wide_counter, [2 x i32], [2 x i32], i32, i32, [2 x i32] }
%union.__atomic_wide_counter = type { i64 }
%struct.anon.17 = type { %struct.ccan_list_head, i32, i32, i32, %struct.rb_thread_sched, ptr, ptr }
%struct.ccan_list_head = type { %struct.ccan_list_node }
%struct.rb_thread_sched = type { %union.pthread_mutex_t, ptr, i8, i8, i8, %struct.ccan_list_head, i32, %struct.ccan_list_node }
%struct.ccan_list_node = type { ptr, ptr }
%struct.RBasic = type { i64, i64 }
%struct.OnigEncodingTypeST = type { ptr, ptr, i32, i32, ptr, ptr, ptr, ptr, ptr, ptr, ptr, ptr, ptr, ptr, ptr, ptr, ptr, i32, i32 }

@ractor_data_type = internal constant %struct.rb_data_type_struct { ptr @.str.61, %struct.anon.12 { ptr @ractor_mark, ptr @ractor_free, ptr @ractor_memsize, ptr null, [1 x ptr] zeroinitializer }, ptr null, ptr null, i64 1 }, align 8
@rb_cRactor = dso_local global i64 0, align 8
@rb_eArgError = external global i64, align 8
@.str.63 = private unnamed_addr constant [33 x i8] c"ASCII incompatible encoding (%s)\00", align 1

; Function Attrs: inlinehint nounwind sspstrong uwtable
define internal i32 @rb_enc_mbminlen(ptr noundef %0) #4 {
  %2 = alloca ptr, align 8
  store ptr %0, ptr %2, align 8, !tbaa !86
  %3 = load ptr, ptr %2, align 8, !tbaa !86
  %4 = getelementptr inbounds nuw %struct.OnigEncodingTypeST, ptr %3, i32 0, i32 3
  %5 = load i32, ptr %4, align 4, !tbaa !228
  ret i32 %5
}

; Function Attrs: inlinehint nounwind sspstrong uwtable
define internal void @ccan_list_head_init(ptr noundef %0) #4 {
  %2 = alloca ptr, align 8
  store ptr %0, ptr %2, align 8, !tbaa !81
  %3 = load ptr, ptr %2, align 8, !tbaa !81
  %4 = getelementptr inbounds nuw %struct.ccan_list_head, ptr %3, i32 0, i32 0
  %5 = load ptr, ptr %2, align 8, !tbaa !81
  %6 = getelementptr inbounds nuw %struct.ccan_list_head, ptr %5, i32 0, i32 0
  %7 = getelementptr inbounds nuw %struct.ccan_list_node, ptr %6, i32 0, i32 1
  store ptr %4, ptr %7, align 8, !tbaa !83
  %8 = load ptr, ptr %2, align 8, !tbaa !81
  %9 = getelementptr inbounds nuw %struct.ccan_list_head, ptr %8, i32 0, i32 0
  %10 = getelementptr inbounds nuw %struct.ccan_list_node, ptr %9, i32 0, i32 0
  store ptr %4, ptr %10, align 8, !tbaa !84
  ret void
}

; Function Attrs: inlinehint nounwind sspstrong uwtable
define internal ptr @rb_enc_name(ptr noundef %0) #4 {
  %2 = alloca ptr, align 8
  store ptr %0, ptr %2, align 8, !tbaa !86
  %3 = load ptr, ptr %2, align 8, !tbaa !86
  %4 = getelementptr inbounds nuw %struct.OnigEncodingTypeST, ptr %3, i32 0, i32 1
  %5 = load ptr, ptr %4, align 8, !tbaa !226
  ret ptr %5
}

; Function Attrs: inlinehint nounwind sspstrong uwtable
define internal zeroext i1 @rb_enc_asciicompat(ptr noundef %0) #4 {
  %2 = alloca i1, align 1
  %3 = alloca ptr, align 8
  store ptr %0, ptr %3, align 8, !tbaa !86
  %4 = load ptr, ptr %3, align 8, !tbaa !86
  %5 = call i32 @rb_enc_mbminlen(ptr noundef %4)
  %6 = icmp ne i32 %5, 1
  br i1 %6, label %7, label %8

7:                                                ; preds = %1
  store i1 false, ptr %2, align 1
  br label %14

8:                                                ; preds = %1
  %9 = load ptr, ptr %3, align 8, !tbaa !86
  %10 = call i32 @rb_enc_dummy_p(ptr noundef %9) #32
  %11 = icmp ne i32 %10, 0
  br i1 %11, label %12, label %13

12:                                               ; preds = %8
  store i1 false, ptr %2, align 1
  br label %14

13:                                               ; preds = %8
  store i1 true, ptr %2, align 1
  br label %14

14:                                               ; preds = %13, %12, %7
  %15 = load i1, ptr %2, align 1
  ret i1 %15
}

; Function Attrs: inlinehint nounwind sspstrong willreturn memory(none) uwtable
define internal zeroext i1 @RB_NIL_P(i64 noundef %0) #11 {
  %2 = alloca i64, align 8
  store i64 %0, ptr %2, align 8, !tbaa !16
  %3 = load i64, ptr %2, align 8, !tbaa !16
  %4 = icmp eq i64 %3, 4
  ret i1 %4
}

; Function Attrs: nounwind sspstrong uwtable
define hidden void @rb_ractor_living_threads_init(ptr noundef %0) #0 {
  %2 = alloca ptr, align 8
  store ptr %0, ptr %2, align 8, !tbaa !7
  %3 = load ptr, ptr %2, align 8, !tbaa !7
  %4 = getelementptr inbounds nuw %struct.rb_ractor_struct, ptr %3, i32 0, i32 4
  %5 = getelementptr inbounds nuw %struct.anon.17, ptr %4, i32 0, i32 0
  call void @ccan_list_head_init(ptr noundef %5)
  %6 = load ptr, ptr %2, align 8, !tbaa !7
  %7 = getelementptr inbounds nuw %struct.rb_ractor_struct, ptr %6, i32 0, i32 4
  %8 = getelementptr inbounds nuw %struct.anon.17, ptr %7, i32 0, i32 1
  store i32 0, ptr %8, align 8, !tbaa !78
  %9 = load ptr, ptr %2, align 8, !tbaa !7
  %10 = getelementptr inbounds nuw %struct.rb_ractor_struct, ptr %9, i32 0, i32 4
  %11 = getelementptr inbounds nuw %struct.anon.17, ptr %10, i32 0, i32 2
  store i32 0, ptr %11, align 4, !tbaa !79
  ret void
}

; Function Attrs: nounwind sspstrong uwtable
define internal void @ractor_queue_setup(ptr noundef %0) #0 {
  %2 = alloca ptr, align 8
  store ptr %0, ptr %2, align 8, !tbaa !93
  %3 = load ptr, ptr %2, align 8, !tbaa !93
  %4 = getelementptr inbounds nuw %struct.rb_ractor_queue, ptr %3, i32 0, i32 3
  store i32 2, ptr %4, align 8, !tbaa !221
  %5 = load ptr, ptr %2, align 8, !tbaa !93
  %6 = getelementptr inbounds nuw %struct.rb_ractor_queue, ptr %5, i32 0, i32 2
  store i32 0, ptr %6, align 4, !tbaa !192
  %7 = load ptr, ptr %2, align 8, !tbaa !93
  %8 = getelementptr inbounds nuw %struct.rb_ractor_queue, ptr %7, i32 0, i32 1
  store i32 0, ptr %8, align 8, !tbaa !220
  %9 = load ptr, ptr %2, align 8, !tbaa !93
  %10 = getelementptr inbounds nuw %struct.rb_ractor_queue, ptr %9, i32 0, i32 3
  %11 = load i32, ptr %10, align 8, !tbaa !221
  %12 = sext i32 %11 to i64
  %13 = mul i64 32, %12
  %14 = call noalias ptr @malloc(i64 noundef %13) #33
  %15 = load ptr, ptr %2, align 8, !tbaa !93
  %16 = getelementptr inbounds nuw %struct.rb_ractor_queue, ptr %15, i32 0, i32 0
  store ptr %14, ptr %16, align 8, !tbaa !219
  ret void
}

; Function Attrs: inlinehint nounwind sspstrong memory(argmem: readwrite, inaccessiblemem: readwrite) uwtable
define internal void @rbimpl_fl_set_raw_raw(ptr noundef %0, i64 noundef %1) #6 {
  %3 = alloca ptr, align 8
  %4 = alloca i64, align 8
  store ptr %0, ptr %3, align 8, !tbaa !223
  store i64 %1, ptr %4, align 8, !tbaa !16
  %5 = load i64, ptr %4, align 8, !tbaa !16
  %6 = load ptr, ptr %3, align 8, !tbaa !223
  %7 = getelementptr inbounds nuw %struct.RBasic, ptr %6, i32 0, i32 0
  %8 = load i64, ptr %7, align 8, !tbaa !225
  %9 = or i64 %8, %5
  store i64 %9, ptr %7, align 8, !tbaa !225
  ret void
}

; Function Attrs: nounwind sspstrong uwtable
define internal void @ractor_init(ptr noundef %0, i64 noundef %1, i64 noundef %2) #0 {
  %4 = alloca ptr, align 8
  %5 = alloca i64, align 8
  %6 = alloca i64, align 8
  %7 = alloca ptr, align 8
  store ptr %0, ptr %4, align 8, !tbaa !7
  store i64 %1, ptr %5, align 8, !tbaa !16
  store i64 %2, ptr %6, align 8, !tbaa !16
  %8 = load ptr, ptr %4, align 8, !tbaa !7
  %9 = getelementptr inbounds nuw %struct.rb_ractor_struct, ptr %8, i32 0, i32 1
  %10 = getelementptr inbounds nuw %struct.rb_ractor_sync, ptr %9, i32 0, i32 3
  call void @ractor_queue_setup(ptr noundef %10)
  %11 = load ptr, ptr %4, align 8, !tbaa !7
  %12 = getelementptr inbounds nuw %struct.rb_ractor_struct, ptr %11, i32 0, i32 1
  %13 = getelementptr inbounds nuw %struct.rb_ractor_sync, ptr %12, i32 0, i32 4
  call void @ractor_queue_setup(ptr noundef %13)
  %14 = load ptr, ptr %4, align 8, !tbaa !7
  %15 = getelementptr inbounds nuw %struct.rb_ractor_struct, ptr %14, i32 0, i32 1
  %16 = getelementptr inbounds nuw %struct.rb_ractor_sync, ptr %15, i32 0, i32 0
  call void @rb_native_mutex_initialize(ptr noundef %16)
  %17 = load ptr, ptr %4, align 8, !tbaa !7
  %18 = getelementptr inbounds nuw %struct.rb_ractor_struct, ptr %17, i32 0, i32 3
  call void @rb_native_cond_initialize(ptr noundef %18)
  %19 = load ptr, ptr %4, align 8, !tbaa !7
  %20 = getelementptr inbounds nuw %struct.rb_ractor_struct, ptr %19, i32 0, i32 4
  %21 = getelementptr inbounds nuw %struct.anon.17, ptr %20, i32 0, i32 4
  call void @rb_thread_sched_init(ptr noundef %21, i1 noundef zeroext false)
  %22 = load ptr, ptr %4, align 8, !tbaa !7
  call void @rb_ractor_living_threads_init(ptr noundef %22)
  %23 = load i64, ptr %5, align 8, !tbaa !16
  %24 = call zeroext i1 @RB_NIL_P(i64 noundef %23) #29
  br i1 %24, label %38, label %25

25:                                               ; preds = %3
  call void @llvm.lifetime.start.p0(i64 8, ptr %7) #16
  %26 = call ptr @rb_string_value_cstr(ptr noundef %5)
  %27 = load i64, ptr %5, align 8, !tbaa !16
  %28 = call ptr @rb_enc_get(i64 noundef %27)
  store ptr %28, ptr %7, align 8, !tbaa !86
  %29 = load ptr, ptr %7, align 8, !tbaa !86
  %30 = call zeroext i1 @rb_enc_asciicompat(ptr noundef %29)
  br i1 %30, label %35, label %31

31:                                               ; preds = %25
  %32 = load i64, ptr @rb_eArgError, align 8, !tbaa !16
  %33 = load ptr, ptr %7, align 8, !tbaa !86
  %34 = call ptr @rb_enc_name(ptr noundef %33)
  call void (i64, ptr, ...) @rb_raise(i64 noundef %32, ptr noundef @.str.63, ptr noundef %34) #30
  unreachable

35:                                               ; preds = %25
  %36 = load i64, ptr %5, align 8, !tbaa !16
  %37 = call i64 @rb_str_new_frozen(i64 noundef %36)
  store i64 %37, ptr %5, align 8, !tbaa !16
  call void @llvm.lifetime.end.p0(i64 8, ptr %7) #16
  br label %38

38:                                               ; preds = %35, %3
  %39 = load i64, ptr %5, align 8, !tbaa !16
  %40 = load ptr, ptr %4, align 8, !tbaa !7
  %41 = getelementptr inbounds nuw %struct.rb_ractor_struct, ptr %40, i32 0, i32 6
  store i64 %39, ptr %41, align 8, !tbaa !41
  %42 = load i64, ptr %6, align 8, !tbaa !16
  %43 = load ptr, ptr %4, align 8, !tbaa !7
  %44 = getelementptr inbounds nuw %struct.rb_ractor_struct, ptr %43, i32 0, i32 7
  store i64 %42, ptr %44, align 8, !tbaa !40
  ret void
}

; Function Attrs: inlinehint nounwind sspstrong uwtable
define internal void @RB_FL_SET_RAW(i64 noundef %0, i64 noundef %1) #4 {
  %3 = alloca i64, align 8
  %4 = alloca i64, align 8
  store i64 %0, ptr %3, align 8, !tbaa !16
  store i64 %1, ptr %4, align 8, !tbaa !16
  %5 = load i64, ptr %3, align 8, !tbaa !16
  %6 = inttoptr i64 %5 to ptr
  %7 = load i64, ptr %4, align 8, !tbaa !16
  call void @rbimpl_fl_set_raw_raw(ptr noundef %6, i64 noundef %7) #28
  ret void
}

; Function Attrs: nounwind sspstrong uwtable
define hidden void @rb_ractor_main_setup(ptr noundef %0, ptr noundef %1, ptr noundef %2) #0 {
  %4 = alloca ptr, align 8
  %5 = alloca ptr, align 8
  %6 = alloca ptr, align 8
  store ptr %0, ptr %4, align 8, !tbaa !44
  store ptr %1, ptr %5, align 8, !tbaa !7
  store ptr %2, ptr %6, align 8, !tbaa !46
  %7 = load i64, ptr @rb_cRactor, align 8, !tbaa !16
  %8 = load ptr, ptr %5, align 8, !tbaa !7
  %9 = call i64 @rb_data_typed_object_wrap(i64 noundef %7, ptr noundef %8, ptr noundef @ractor_data_type)
  %10 = load ptr, ptr %5, align 8, !tbaa !7
  %11 = getelementptr inbounds nuw %struct.rb_ractor_struct, ptr %10, i32 0, i32 0
  %12 = getelementptr inbounds nuw %struct.rb_ractor_pub, ptr %11, i32 0, i32 0
  store i64 %9, ptr %12, align 8, !tbaa !42
  %13 = load ptr, ptr %5, align 8, !tbaa !7
  %14 = getelementptr inbounds nuw %struct.rb_ractor_struct, ptr %13, i32 0, i32 0
  %15 = getelementptr inbounds nuw %struct.rb_ractor_pub, ptr %14, i32 0, i32 0
  %16 = load i64, ptr %15, align 8, !tbaa !42
  call void @RB_FL_SET_RAW(i64 noundef %16, i64 noundef 256)
  %17 = load ptr, ptr %5, align 8, !tbaa !7
  call void @ractor_init(ptr noundef %17, i64 noundef 4, i64 noundef 4)
  %18 = load ptr, ptr %6, align 8, !tbaa !46
  %19 = load ptr, ptr %5, align 8, !tbaa !7
  %20 = getelementptr inbounds nuw %struct.rb_ractor_struct, ptr %19, i32 0, i32 4
  %21 = getelementptr inbounds nuw %struct.anon.17, ptr %20, i32 0, i32 6
  store ptr %18, ptr %21, align 8, !tbaa !85
  %22 = load ptr, ptr %5, align 8, !tbaa !7
  %23 = load ptr, ptr %6, align 8, !tbaa !46
  call void @rb_ractor_living_threads_insert(ptr noundef %22, ptr noundef %23)
  ret void
}