; Function Attrs: nounwind sspstrong uwtable
define hidden void @rb_ractor_main_setup(ptr noundef readnone captures(none) %0, ptr noundef %1, ptr noundef %2) local_unnamed_addr #0 {
  %4 = load i64, ptr @rb_cRactor, align 8, !tbaa !80
  %5 = tail call i64 @rb_data_typed_object_wrap(i64 noundef %4, ptr noundef %1, ptr noundef nonnull @ractor_data_type) #19
  store i64 %5, ptr %1, align 8, !tbaa !37
  %6 = inttoptr i64 %5 to ptr
  %7 = load i64, ptr %6, align 8, !tbaa !83
  %8 = or i64 %7, 256
  store i64 %8, ptr %6, align 8, !tbaa !83
  %9 = getelementptr inbounds nuw i8, ptr %1, i64 40
  %10 = getelementptr inbounds nuw i8, ptr %1, i64 88
  %11 = getelementptr inbounds nuw i8, ptr %1, i64 104
  store i32 2, ptr %11, align 8, !tbaa !85
  %12 = getelementptr inbounds nuw i8, ptr %1, i64 100
  store i32 0, ptr %12, align 4, !tbaa !86
  %13 = getelementptr inbounds nuw i8, ptr %1, i64 96
  store i32 0, ptr %13, align 8, !tbaa !87
  %14 = tail call noalias dereferenceable_or_null(64) ptr @malloc(i64 noundef 64) #34
  store ptr %14, ptr %10, align 8, !tbaa !88
  %15 = getelementptr inbounds nuw i8, ptr %1, i64 120
  %16 = getelementptr inbounds nuw i8, ptr %1, i64 136
  store i32 2, ptr %16, align 8, !tbaa !85
  %17 = getelementptr inbounds nuw i8, ptr %1, i64 132
  store i32 0, ptr %17, align 4, !tbaa !86
  %18 = getelementptr inbounds nuw i8, ptr %1, i64 128
  store i32 0, ptr %18, align 8, !tbaa !87
  %19 = tail call noalias dereferenceable_or_null(64) ptr @malloc(i64 noundef 64) #34
  store ptr %19, ptr %15, align 8, !tbaa !88
  tail call void @rb_native_mutex_initialize(ptr noundef nonnull %9) #19
  %20 = getelementptr inbounds nuw i8, ptr %1, i64 208
  tail call void @rb_native_cond_initialize(ptr noundef nonnull %20) #19
  %21 = getelementptr inbounds nuw i8, ptr %1, i64 288
  tail call void @rb_thread_sched_init(ptr noundef nonnull %21, i1 noundef zeroext false) #19
  %22 = getelementptr inbounds nuw i8, ptr %1, i64 256
  %23 = getelementptr inbounds nuw i8, ptr %1, i64 264
  store ptr %22, ptr %23, align 8, !tbaa !73
  store ptr %22, ptr %22, align 8, !tbaa !74
  %24 = getelementptr inbounds nuw i8, ptr %1, i64 272
  store i32 0, ptr %24, align 8, !tbaa !75
  %25 = getelementptr inbounds nuw i8, ptr %1, i64 276
  store i32 0, ptr %25, align 4, !tbaa !76
  %26 = getelementptr inbounds nuw i8, ptr %1, i64 408
  store i64 4, ptr %26, align 8, !tbaa !36
  %27 = getelementptr inbounds nuw i8, ptr %1, i64 416
  store i64 4, ptr %27, align 8, !tbaa !35
  %28 = getelementptr inbounds nuw i8, ptr %1, i64 392
  store ptr %2, ptr %28, align 8, !tbaa !89
  tail call void @rb_ractor_living_threads_insert(ptr noundef nonnull %1, ptr noundef %2)
  ret void
}